target datalayout = "e-m:e-p270:32:32-p271:32:32-p272:64:64-i64:64-i128:128-f80:128-n8:16:32:64-S128"
target triple = "x86_64-pc-linux-gnu"

%struct.pmix_tma = type { ptr, ptr, ptr, ptr, ptr, ptr, ptr, ptr }
%struct.pmix_data_buffer = type { ptr, ptr, ptr, i64, i64 }

; Function Attrs: inlinehint nounwind uwtable
define internal void @pmix_tma_free(ptr noundef %0, ptr noundef %1) #1 {
  %3 = alloca ptr, align 8
  %4 = alloca ptr, align 8
  store ptr %0, ptr %3, align 8, !tbaa !8
  store ptr %1, ptr %4, align 8, !tbaa !51
  %5 = load ptr, ptr %3, align 8, !tbaa !8
  %6 = icmp ne ptr null, %5
  br i1 %6, label %7, label %13

7:                                                ; preds = %2
  %8 = load ptr, ptr %3, align 8, !tbaa !8
  %9 = getelementptr inbounds nuw %struct.pmix_tma, ptr %8, i32 0, i32 5
  %10 = load ptr, ptr %9, align 8, !tbaa !229
  %11 = load ptr, ptr %3, align 8, !tbaa !8
  %12 = load ptr, ptr %4, align 8, !tbaa !51
  call void %10(ptr noundef %11, ptr noundef %12)
  br label %15

13:                                               ; preds = %2
  %14 = load ptr, ptr %4, align 8, !tbaa !51
  call void @free(ptr noundef %14) #15
  br label %15

15:                                               ; preds = %13, %7
  ret void
}

; Function Attrs: inlinehint nounwind uwtable
define internal void @pmix_bfrops_base_tma_data_buffer_destruct(ptr noundef %0, ptr noundef %1) #1 {
  %3 = alloca ptr, align 8
  %4 = alloca ptr, align 8
  store ptr %0, ptr %3, align 8, !tbaa !126
  store ptr %1, ptr %4, align 8, !tbaa !8
  %5 = load ptr, ptr %3, align 8, !tbaa !126
  %6 = getelementptr inbounds nuw %struct.pmix_data_buffer, ptr %5, i32 0, i32 0
  %7 = load ptr, ptr %6, align 8, !tbaa !128
  %8 = icmp ne ptr null, %7
  br i1 %8, label %9, label %16

9:                                                ; preds = %2
  %10 = load ptr, ptr %4, align 8, !tbaa !8
  %11 = load ptr, ptr %3, align 8, !tbaa !126
  %12 = getelementptr inbounds nuw %struct.pmix_data_buffer, ptr %11, i32 0, i32 0
  %13 = load ptr, ptr %12, align 8, !tbaa !128
  call void @pmix_tma_free(ptr noundef %10, ptr noundef %13)
  %14 = load ptr, ptr %3, align 8, !tbaa !126
  %15 = getelementptr inbounds nuw %struct.pmix_data_buffer, ptr %14, i32 0, i32 0
  store ptr null, ptr %15, align 8, !tbaa !128
  br label %16

16:                                               ; preds = %9, %2
  %17 = load ptr, ptr %3, align 8, !tbaa !126
  %18 = getelementptr inbounds nuw %struct.pmix_data_buffer, ptr %17, i32 0, i32 1
  store ptr null, ptr %18, align 8, !tbaa !130
  %19 = load ptr, ptr %3, align 8, !tbaa !126
  %20 = getelementptr inbounds nuw %struct.pmix_data_buffer, ptr %19, i32 0, i32 2
  store ptr null, ptr %20, align 8, !tbaa !131
  %21 = load ptr, ptr %3, align 8, !tbaa !126
  %22 = getelementptr inbounds nuw %struct.pmix_data_buffer, ptr %21, i32 0, i32 3
  store i64 0, ptr %22, align 8, !tbaa !132
  %23 = load ptr, ptr %3, align 8, !tbaa !126
  %24 = getelementptr inbounds nuw %struct.pmix_data_buffer, ptr %23, i32 0, i32 4
  store i64 0, ptr %24, align 8, !tbaa !133
  ret void
}

; Function Attrs: inlinehint nounwind uwtable
define internal void @pmix_bfrops_base_tma_data_buffer_release(ptr noundef %0, ptr noundef %1) #1 {
  %3 = alloca ptr, align 8
  %4 = alloca ptr, align 8
  store ptr %0, ptr %3, align 8, !tbaa !126
  store ptr %1, ptr %4, align 8, !tbaa !8
  %5 = load ptr, ptr %3, align 8, !tbaa !126
  %6 = icmp ne ptr null, %5
  br i1 %6, label %7, label %12

7:                                                ; preds = %2
  %8 = load ptr, ptr %3, align 8, !tbaa !126
  %9 = load ptr, ptr %4, align 8, !tbaa !8
  call void @pmix_bfrops_base_tma_data_buffer_destruct(ptr noundef %8, ptr noundef %9)
  %10 = load ptr, ptr %4, align 8, !tbaa !8
  %11 = load ptr, ptr %3, align 8, !tbaa !126
  call void @pmix_tma_free(ptr noundef %10, ptr noundef %11)
  br label %12

12:                                               ; preds = %7, %2
  ret void
}

; Function Attrs: nounwind uwtable
define void @PMIx_Data_buffer_release(ptr noundef %0) #0 {
  %2 = alloca ptr, align 8
  store ptr %0, ptr %2, align 8, !tbaa !126
  %3 = load ptr, ptr %2, align 8, !tbaa !126
  call void @pmix_bfrops_base_tma_data_buffer_release(ptr noundef %3, ptr noundef null)
  ret void
}