; Function Attrs: mustprogress nounwind willreturn uwtable
define void @PMIx_Data_buffer_release(ptr noundef captures(address_is_null) %0) local_unnamed_addr #16 {
  %.not.i = icmp eq ptr %0, null
  br i1 %.not.i, label %pmix_bfrops_base_tma_data_buffer_release.exit, label %2

2:                                                ; preds = %1
  %3 = load ptr, ptr %0, align 8, !tbaa !59
  %.not.i.i = icmp eq ptr %3, null
  br i1 %.not.i.i, label %pmix_bfrops_base_tma_data_buffer_destruct.exit.i, label %4

4:                                                ; preds = %2
  tail call void @free(ptr noundef nonnull %3) #44
  br label %pmix_bfrops_base_tma_data_buffer_destruct.exit.i

pmix_bfrops_base_tma_data_buffer_destruct.exit.i: ; preds = %4, %2
  tail call void @free(ptr noundef nonnull %0) #44
  br label %pmix_bfrops_base_tma_data_buffer_release.exit

pmix_bfrops_base_tma_data_buffer_release.exit:    ; preds = %1, %pmix_bfrops_base_tma_data_buffer_destruct.exit.i
  ret void
}